target datalayout = "e-m:e-p270:32:32-p271:32:32-p272:64:64-i64:64-i128:128-f80:128-n8:16:32:64-S128"
target triple = "x86_64-pc-linux-gnu"

@_cmsEndPointsBySpace.RGBblack = internal global [4 x i16] zeroinitializer, align 2
@_cmsEndPointsBySpace.RGBwhite = internal global [4 x i16] [i16 -1, i16 -1, i16 -1, i16 0], align 2
@_cmsEndPointsBySpace.CMYKblack = internal global [4 x i16] [i16 -1, i16 -1, i16 -1, i16 -1], align 2
@_cmsEndPointsBySpace.CMYKwhite = internal global [4 x i16] zeroinitializer, align 2
@_cmsEndPointsBySpace.LABblack = internal global [4 x i16] [i16 0, i16 -32640, i16 -32640, i16 0], align 2
@_cmsEndPointsBySpace.LABwhite = internal global [4 x i16] [i16 -1, i16 -32640, i16 -32640, i16 0], align 2
@_cmsEndPointsBySpace.CMYblack = internal global [4 x i16] [i16 -1, i16 -1, i16 -1, i16 0], align 2
@_cmsEndPointsBySpace.CMYwhite = internal global [4 x i16] zeroinitializer, align 2
@_cmsEndPointsBySpace.Grayblack = internal global [4 x i16] zeroinitializer, align 2
@_cmsEndPointsBySpace.GrayWhite = internal global [4 x i16] [i16 -1, i16 0, i16 0, i16 0], align 2

; Function Attrs: nounwind uwtable
define hidden i32 @_cmsEndPointsBySpace(i32 noundef %0, ptr noundef %1, ptr noundef %2, ptr noundef %3) #0 {
  %5 = alloca i32, align 4
  %6 = alloca i32, align 4
  %7 = alloca ptr, align 8
  %8 = alloca ptr, align 8
  %9 = alloca ptr, align 8
  store i32 %0, ptr %6, align 4
  store ptr %1, ptr %7, align 8
  store ptr %2, ptr %8, align 8
  store ptr %3, ptr %9, align 8
  %10 = load i32, ptr %6, align 4
  switch i32 %10, label %91 [
    i32 1196573017, label %11
    i32 1380401696, label %27
    i32 1281450528, label %43
    i32 1129142603, label %59
    i32 1129142560, label %75
  ]

11:                                               ; preds = %4
  %12 = load ptr, ptr %7, align 8
  %13 = icmp ne ptr %12, null
  br i1 %13, label %14, label %16

14:                                               ; preds = %11
  %15 = load ptr, ptr %7, align 8
  store ptr @_cmsEndPointsBySpace.GrayWhite, ptr %15, align 8
  br label %16

16:                                               ; preds = %14, %11
  %17 = load ptr, ptr %8, align 8
  %18 = icmp ne ptr %17, null
  br i1 %18, label %19, label %21

19:                                               ; preds = %16
  %20 = load ptr, ptr %8, align 8
  store ptr @_cmsEndPointsBySpace.Grayblack, ptr %20, align 8
  br label %21

21:                                               ; preds = %19, %16
  %22 = load ptr, ptr %9, align 8
  %23 = icmp ne ptr %22, null
  br i1 %23, label %24, label %26

24:                                               ; preds = %21
  %25 = load ptr, ptr %9, align 8
  store i32 1, ptr %25, align 4
  br label %26

26:                                               ; preds = %24, %21
  store i32 1, ptr %5, align 4
  br label %93

27:                                               ; preds = %4
  %28 = load ptr, ptr %7, align 8
  %29 = icmp ne ptr %28, null
  br i1 %29, label %30, label %32

30:                                               ; preds = %27
  %31 = load ptr, ptr %7, align 8
  store ptr @_cmsEndPointsBySpace.RGBwhite, ptr %31, align 8
  br label %32

32:                                               ; preds = %30, %27
  %33 = load ptr, ptr %8, align 8
  %34 = icmp ne ptr %33, null
  br i1 %34, label %35, label %37

35:                                               ; preds = %32
  %36 = load ptr, ptr %8, align 8
  store ptr @_cmsEndPointsBySpace.RGBblack, ptr %36, align 8
  br label %37

37:                                               ; preds = %35, %32
  %38 = load ptr, ptr %9, align 8
  %39 = icmp ne ptr %38, null
  br i1 %39, label %40, label %42

40:                                               ; preds = %37
  %41 = load ptr, ptr %9, align 8
  store i32 3, ptr %41, align 4
  br label %42

42:                                               ; preds = %40, %37
  store i32 1, ptr %5, align 4
  br label %93

43:                                               ; preds = %4
  %44 = load ptr, ptr %7, align 8
  %45 = icmp ne ptr %44, null
  br i1 %45, label %46, label %48

46:                                               ; preds = %43
  %47 = load ptr, ptr %7, align 8
  store ptr @_cmsEndPointsBySpace.LABwhite, ptr %47, align 8
  br label %48

48:                                               ; preds = %46, %43
  %49 = load ptr, ptr %8, align 8
  %50 = icmp ne ptr %49, null
  br i1 %50, label %51, label %53

51:                                               ; preds = %48
  %52 = load ptr, ptr %8, align 8
  store ptr @_cmsEndPointsBySpace.LABblack, ptr %52, align 8
  br label %53

53:                                               ; preds = %51, %48
  %54 = load ptr, ptr %9, align 8
  %55 = icmp ne ptr %54, null
  br i1 %55, label %56, label %58

56:                                               ; preds = %53
  %57 = load ptr, ptr %9, align 8
  store i32 3, ptr %57, align 4
  br label %58

58:                                               ; preds = %56, %53
  store i32 1, ptr %5, align 4
  br label %93

59:                                               ; preds = %4
  %60 = load ptr, ptr %7, align 8
  %61 = icmp ne ptr %60, null
  br i1 %61, label %62, label %64

62:                                               ; preds = %59
  %63 = load ptr, ptr %7, align 8
  store ptr @_cmsEndPointsBySpace.CMYKwhite, ptr %63, align 8
  br label %64

64:                                               ; preds = %62, %59
  %65 = load ptr, ptr %8, align 8
  %66 = icmp ne ptr %65, null
  br i1 %66, label %67, label %69

67:                                               ; preds = %64
  %68 = load ptr, ptr %8, align 8
  store ptr @_cmsEndPointsBySpace.CMYKblack, ptr %68, align 8
  br label %69

69:                                               ; preds = %67, %64
  %70 = load ptr, ptr %9, align 8
  %71 = icmp ne ptr %70, null
  br i1 %71, label %72, label %74

72:                                               ; preds = %69
  %73 = load ptr, ptr %9, align 8
  store i32 4, ptr %73, align 4
  br label %74

74:                                               ; preds = %72, %69
  store i32 1, ptr %5, align 4
  br label %93

75:                                               ; preds = %4
  %76 = load ptr, ptr %7, align 8
  %77 = icmp ne ptr %76, null
  br i1 %77, label %78, label %80

78:                                               ; preds = %75
  %79 = load ptr, ptr %7, align 8
  store ptr @_cmsEndPointsBySpace.CMYwhite, ptr %79, align 8
  br label %80

80:                                               ; preds = %78, %75
  %81 = load ptr, ptr %8, align 8
  %82 = icmp ne ptr %81, null
  br i1 %82, label %83, label %85

83:                                               ; preds = %80
  %84 = load ptr, ptr %8, align 8
  store ptr @_cmsEndPointsBySpace.CMYblack, ptr %84, align 8
  br label %85

85:                                               ; preds = %83, %80
  %86 = load ptr, ptr %9, align 8
  %87 = icmp ne ptr %86, null
  br i1 %87, label %88, label %90

88:                                               ; preds = %85
  %89 = load ptr, ptr %9, align 8
  store i32 3, ptr %89, align 4
  br label %90

90:                                               ; preds = %88, %85
  store i32 1, ptr %5, align 4
  br label %93

91:                                               ; preds = %4
  br label %92

92:                                               ; preds = %91
  store i32 0, ptr %5, align 4
  br label %93

93:                                               ; preds = %92, %90, %74, %58, %42, %26
  %94 = load i32, ptr %5, align 4
  ret i32 %94
}