; Function Attrs: mustprogress nofree norecurse nosync nounwind willreturn memory(argmem: write) uwtable
define hidden range(i32 0, 2) i32 @_cmsEndPointsBySpace(i32 noundef %0, ptr noundef writeonly %1, ptr noundef writeonly %2, ptr noundef writeonly %3) local_unnamed_addr #8 {
  switch i32 %0, label %30 [
    i32 1196573017, label %5
    i32 1380401696, label %10
    i32 1281450528, label %15
    i32 1129142603, label %20
    i32 1129142560, label %25
  ]

5:                                                ; preds = %4
  %.not53 = icmp eq ptr %1, null
  br i1 %.not53, label %7, label %6

6:                                                ; preds = %5
  store ptr @_cmsEndPointsBySpace.GrayWhite, ptr %1, align 8
  br label %7

7:                                                ; preds = %6, %5
  %.not54 = icmp eq ptr %2, null
  br i1 %.not54, label %9, label %8

8:                                                ; preds = %7
  store ptr @_cmsEndPointsBySpace.Grayblack, ptr %2, align 8
  br label %9

9:                                                ; preds = %8, %7
  %.not55 = icmp eq ptr %3, null
  br i1 %.not55, label %30, label %.sink.split

10:                                               ; preds = %4
  %.not50 = icmp eq ptr %1, null
  br i1 %.not50, label %12, label %11

11:                                               ; preds = %10
  store ptr @_cmsEndPointsBySpace.RGBwhite, ptr %1, align 8
  br label %12

12:                                               ; preds = %11, %10
  %.not51 = icmp eq ptr %2, null
  br i1 %.not51, label %14, label %13

13:                                               ; preds = %12
  store ptr @_cmsEndPointsBySpace.RGBblack, ptr %2, align 8
  br label %14

14:                                               ; preds = %13, %12
  %.not52 = icmp eq ptr %3, null
  br i1 %.not52, label %30, label %.sink.split

15:                                               ; preds = %4
  %.not47 = icmp eq ptr %1, null
  br i1 %.not47, label %17, label %16

16:                                               ; preds = %15
  store ptr @_cmsEndPointsBySpace.LABwhite, ptr %1, align 8
  br label %17

17:                                               ; preds = %16, %15
  %.not48 = icmp eq ptr %2, null
  br i1 %.not48, label %19, label %18

18:                                               ; preds = %17
  store ptr @_cmsEndPointsBySpace.LABblack, ptr %2, align 8
  br label %19

19:                                               ; preds = %18, %17
  %.not49 = icmp eq ptr %3, null
  br i1 %.not49, label %30, label %.sink.split

20:                                               ; preds = %4
  %.not44 = icmp eq ptr %1, null
  br i1 %.not44, label %22, label %21

21:                                               ; preds = %20
  store ptr @_cmsEndPointsBySpace.CMYKwhite, ptr %1, align 8
  br label %22

22:                                               ; preds = %21, %20
  %.not45 = icmp eq ptr %2, null
  br i1 %.not45, label %24, label %23

23:                                               ; preds = %22
  store ptr @_cmsEndPointsBySpace.CMYKblack, ptr %2, align 8
  br label %24

24:                                               ; preds = %23, %22
  %.not46 = icmp eq ptr %3, null
  br i1 %.not46, label %30, label %.sink.split

25:                                               ; preds = %4
  %.not = icmp eq ptr %1, null
  br i1 %.not, label %27, label %26

26:                                               ; preds = %25
  store ptr @_cmsEndPointsBySpace.CMYwhite, ptr %1, align 8
  br label %27

27:                                               ; preds = %26, %25
  %.not42 = icmp eq ptr %2, null
  br i1 %.not42, label %29, label %28

28:                                               ; preds = %27
  store ptr @_cmsEndPointsBySpace.CMYblack, ptr %2, align 8
  br label %29

29:                                               ; preds = %28, %27
  %.not43 = icmp eq ptr %3, null
  br i1 %.not43, label %30, label %.sink.split

.sink.split:                                      ; preds = %29, %24, %19, %14, %9
  %.sink = phi i32 [ 1, %9 ], [ 3, %14 ], [ 3, %19 ], [ 4, %24 ], [ 3, %29 ]
  store i32 %.sink, ptr %3, align 4
  br label %30

30:                                               ; preds = %.sink.split, %4, %29, %24, %19, %14, %9
  %.0 = phi i32 [ 1, %9 ], [ 1, %14 ], [ 1, %19 ], [ 1, %24 ], [ 1, %29 ], [ 0, %4 ], [ 1, %.sink.split ]
  ret i32 %.0
}